; Function Attrs: mustprogress nounwind uwtable
define dso_local noundef ptr @_ZN4llvm12SCEVExpander13visitSMinExprEPKNS_12SCEVSMinExprE(ptr noundef nonnull align 8 dereferenceable(816) %0, ptr noundef readonly captures(none) %1) local_unnamed_addr #0 align 2 {
  %3 = alloca %"class.llvm::Twine", align 8
  %4 = getelementptr inbounds nuw i8, ptr %3, i64 32
  %5 = getelementptr inbounds nuw i8, ptr %3, i64 33
  store i8 1, ptr %5, align 1
  store ptr @.str.10, ptr %3, align 8
  store i8 3, ptr %4, align 8
  %6 = tail call noundef ptr @_ZN4llvm12SCEVExpander16expandMinMaxExprEPKNS_12SCEVNAryExprEjNS_5TwineEb(ptr noundef nonnull align 8 dereferenceable(816) %0, ptr noundef %1, i32 noundef 321, ptr noundef nonnull byval(%"class.llvm::Twine") align 8 %3, i1 noundef zeroext false)
  ret ptr %6
}